target datalayout = "e-m:e-p270:32:32-p271:32:32-p272:64:64-i64:64-i128:128-f80:128-n8:16:32:64-S128"
target triple = "x86_64-pc-linux-gnu"

%"class.vcg::Point3" = type { [3 x float] }
%"class.vcg::face::NormalAbs" = type { %"class.vcg::Arity3.base", %"class.vcg::Point3" }
%"class.vcg::Arity3.base" = type { %"class.vcg::face::BitFlags.base" }
%"class.vcg::face::BitFlags.base" = type <{ %"class.vcg::Arity2", i32 }>
%"class.vcg::Arity2" = type { %"class.vcg::face::VertexRef" }
%"class.vcg::face::VertexRef" = type { %"class.vcg::Arity1", [3 x ptr] }
%"class.vcg::Arity1" = type { %"class.vcg::face::InfoOcf" }
%"class.vcg::face::InfoOcf" = type { ptr }

; Function Attrs: mustprogress nounwind uwtable
define linkonce_odr void @_ZN3vcg6Point3IfEC2Efff(ptr noundef nonnull align 4 dereferenceable(12) %0, float noundef %1, float noundef %2, float noundef %3) unnamed_addr #4 comdat align 2 {
  %5 = alloca ptr, align 8
  %6 = alloca float, align 4
  %7 = alloca float, align 4
  %8 = alloca float, align 4
  store ptr %0, ptr %5, align 8
  store float %1, ptr %6, align 4
  store float %2, ptr %7, align 4
  store float %3, ptr %8, align 4
  %9 = load ptr, ptr %5, align 8
  %10 = load float, ptr %6, align 4
  %11 = getelementptr inbounds %"class.vcg::Point3", ptr %9, i32 0, i32 0
  %12 = getelementptr inbounds [3 x float], ptr %11, i64 0, i64 0
  store float %10, ptr %12, align 4
  %13 = load float, ptr %7, align 4
  %14 = getelementptr inbounds %"class.vcg::Point3", ptr %9, i32 0, i32 0
  %15 = getelementptr inbounds [3 x float], ptr %14, i64 0, i64 1
  store float %13, ptr %15, align 4
  %16 = load float, ptr %8, align 4
  %17 = getelementptr inbounds %"class.vcg::Point3", ptr %9, i32 0, i32 0
  %18 = getelementptr inbounds [3 x float], ptr %17, i64 0, i64 2
  store float %16, ptr %18, align 4
  ret void
}

; Function Attrs: mustprogress nounwind uwtable
define linkonce_odr noundef double @_ZSt3powIfiEN9__gnu_cxx11__promote_2IT_T0_NS0_9__promoteIS2_Xsr3std12__is_integerIS2_EE7__valueEE6__typeENS4_IS3_Xsr3std12__is_integerIS3_EE7__valueEE6__typeEE6__typeES2_S3_(float noundef %0, i32 noundef %1) #4 comdat {
  %3 = alloca float, align 4
  %4 = alloca i32, align 4
  store float %0, ptr %3, align 4
  store i32 %1, ptr %4, align 4
  %5 = load float, ptr %3, align 4
  %6 = fpext float %5 to double
  %7 = load i32, ptr %4, align 4
  %8 = sitofp i32 %7 to double
  %9 = call double @pow(double noundef %6, double noundef %8) #3
  ret double %9
}

; Function Attrs: mustprogress uwtable
define linkonce_odr { <2 x float>, float } @_ZNK3vcg6Point3IfEdvEf(ptr noundef nonnull align 4 dereferenceable(12) %0, float noundef %1) #5 comdat align 2 {
  %3 = alloca %"class.vcg::Point3", align 4
  %4 = alloca ptr, align 8
  %5 = alloca float, align 4
  %6 = alloca { <2 x float>, float }, align 8
  store ptr %0, ptr %4, align 8
  store float %1, ptr %5, align 4
  %7 = load ptr, ptr %4, align 8
  %8 = getelementptr inbounds %"class.vcg::Point3", ptr %7, i32 0, i32 0
  %9 = getelementptr inbounds [3 x float], ptr %8, i64 0, i64 0
  %10 = load float, ptr %9, align 4
  %11 = load float, ptr %5, align 4
  %12 = fdiv float %10, %11
  %13 = getelementptr inbounds %"class.vcg::Point3", ptr %7, i32 0, i32 0
  %14 = getelementptr inbounds [3 x float], ptr %13, i64 0, i64 1
  %15 = load float, ptr %14, align 4
  %16 = load float, ptr %5, align 4
  %17 = fdiv float %15, %16
  %18 = getelementptr inbounds %"class.vcg::Point3", ptr %7, i32 0, i32 0
  %19 = getelementptr inbounds [3 x float], ptr %18, i64 0, i64 2
  %20 = load float, ptr %19, align 4
  %21 = load float, ptr %5, align 4
  %22 = fdiv float %20, %21
  call void @_ZN3vcg6Point3IfEC2Efff(ptr noundef nonnull align 4 dereferenceable(12) %3, float noundef %12, float noundef %17, float noundef %22)
  %23 = getelementptr inbounds %"class.vcg::Point3", ptr %3, i32 0, i32 0
  call void @llvm.memcpy.p0.p0.i64(ptr align 8 %6, ptr align 4 %23, i64 12, i1 false)
  %24 = load { <2 x float>, float }, ptr %6, align 8
  ret { <2 x float>, float } %24
}

; Function Attrs: mustprogress uwtable
define linkonce_odr { <2 x float>, float } @_ZNK3vcg6Point3IfEplERKS1_(ptr noundef nonnull align 4 dereferenceable(12) %0, ptr noundef nonnull align 4 dereferenceable(12) %1) #5 comdat align 2 {
  %3 = alloca %"class.vcg::Point3", align 4
  %4 = alloca ptr, align 8
  %5 = alloca ptr, align 8
  %6 = alloca { <2 x float>, float }, align 8
  store ptr %0, ptr %4, align 8
  store ptr %1, ptr %5, align 8
  %7 = load ptr, ptr %4, align 8
  %8 = getelementptr inbounds %"class.vcg::Point3", ptr %7, i32 0, i32 0
  %9 = getelementptr inbounds [3 x float], ptr %8, i64 0, i64 0
  %10 = load float, ptr %9, align 4
  %11 = load ptr, ptr %5, align 8
  %12 = getelementptr inbounds %"class.vcg::Point3", ptr %11, i32 0, i32 0
  %13 = getelementptr inbounds [3 x float], ptr %12, i64 0, i64 0
  %14 = load float, ptr %13, align 4
  %15 = fadd float %10, %14
  %16 = getelementptr inbounds %"class.vcg::Point3", ptr %7, i32 0, i32 0
  %17 = getelementptr inbounds [3 x float], ptr %16, i64 0, i64 1
  %18 = load float, ptr %17, align 4
  %19 = load ptr, ptr %5, align 8
  %20 = getelementptr inbounds %"class.vcg::Point3", ptr %19, i32 0, i32 0
  %21 = getelementptr inbounds [3 x float], ptr %20, i64 0, i64 1
  %22 = load float, ptr %21, align 4
  %23 = fadd float %18, %22
  %24 = getelementptr inbounds %"class.vcg::Point3", ptr %7, i32 0, i32 0
  %25 = getelementptr inbounds [3 x float], ptr %24, i64 0, i64 2
  %26 = load float, ptr %25, align 4
  %27 = load ptr, ptr %5, align 8
  %28 = getelementptr inbounds %"class.vcg::Point3", ptr %27, i32 0, i32 0
  %29 = getelementptr inbounds [3 x float], ptr %28, i64 0, i64 2
  %30 = load float, ptr %29, align 4
  %31 = fadd float %26, %30
  call void @_ZN3vcg6Point3IfEC2Efff(ptr noundef nonnull align 4 dereferenceable(12) %3, float noundef %15, float noundef %23, float noundef %31)
  %32 = getelementptr inbounds %"class.vcg::Point3", ptr %3, i32 0, i32 0
  call void @llvm.memcpy.p0.p0.i64(ptr align 8 %6, ptr align 4 %32, i64 12, i1 false)
  %33 = load { <2 x float>, float }, ptr %6, align 8
  ret { <2 x float>, float } %33
}

; Function Attrs: mustprogress uwtable
define linkonce_odr { <2 x float>, float } @_ZNK3vcg6Point3IfEmlEf(ptr noundef nonnull align 4 dereferenceable(12) %0, float noundef %1) #5 comdat align 2 {
  %3 = alloca %"class.vcg::Point3", align 4
  %4 = alloca ptr, align 8
  %5 = alloca float, align 4
  %6 = alloca { <2 x float>, float }, align 8
  store ptr %0, ptr %4, align 8
  store float %1, ptr %5, align 4
  %7 = load ptr, ptr %4, align 8
  %8 = getelementptr inbounds %"class.vcg::Point3", ptr %7, i32 0, i32 0
  %9 = getelementptr inbounds [3 x float], ptr %8, i64 0, i64 0
  %10 = load float, ptr %9, align 4
  %11 = load float, ptr %5, align 4
  %12 = fmul float %10, %11
  %13 = getelementptr inbounds %"class.vcg::Point3", ptr %7, i32 0, i32 0
  %14 = getelementptr inbounds [3 x float], ptr %13, i64 0, i64 1
  %15 = load float, ptr %14, align 4
  %16 = load float, ptr %5, align 4
  %17 = fmul float %15, %16
  %18 = getelementptr inbounds %"class.vcg::Point3", ptr %7, i32 0, i32 0
  %19 = getelementptr inbounds [3 x float], ptr %18, i64 0, i64 2
  %20 = load float, ptr %19, align 4
  %21 = load float, ptr %5, align 4
  %22 = fmul float %20, %21
  call void @_ZN3vcg6Point3IfEC2Efff(ptr noundef nonnull align 4 dereferenceable(12) %3, float noundef %12, float noundef %17, float noundef %22)
  %23 = getelementptr inbounds %"class.vcg::Point3", ptr %3, i32 0, i32 0
  call void @llvm.memcpy.p0.p0.i64(ptr align 8 %6, ptr align 4 %23, i64 12, i1 false)
  %24 = load { <2 x float>, float }, ptr %6, align 8
  ret { <2 x float>, float } %24
}

; Function Attrs: mustprogress nounwind uwtable
define linkonce_odr noundef nonnull align 4 dereferenceable(4) ptr @_ZN3vcg6Point3IfEixEi(ptr noundef nonnull align 4 dereferenceable(12) %0, i32 noundef %1) #4 comdat align 2 {
  %3 = alloca ptr, align 8
  %4 = alloca i32, align 4
  store ptr %0, ptr %3, align 8
  store i32 %1, ptr %4, align 4
  %5 = load ptr, ptr %3, align 8
  %6 = getelementptr inbounds %"class.vcg::Point3", ptr %5, i32 0, i32 0
  %7 = load i32, ptr %4, align 4
  %8 = sext i32 %7 to i64
  %9 = getelementptr inbounds [3 x float], ptr %6, i64 0, i64 %8
  ret ptr %9
}

; Function Attrs: mustprogress nounwind uwtable
define linkonce_odr noundef nonnull align 4 dereferenceable(12) ptr @_ZN3vcg4face9NormalAbsINS_6Point3IfEENS_6Arity3INS_8FaceBaseI11CUsedTypesOEENS0_7InfoOcfENS0_9VertexRefENS0_8BitFlagsEEEE1NEv(ptr noundef nonnull align 8 dereferenceable(48) %0) #4 comdat align 2 {
  %2 = alloca ptr, align 8
  store ptr %0, ptr %2, align 8
  %3 = load ptr, ptr %2, align 8
  %4 = getelementptr inbounds %"class.vcg::face::NormalAbs", ptr %3, i32 0, i32 1
  ret ptr %4
}

; Function Attrs: mustprogress nounwind uwtable
define linkonce_odr void @_ZN3vcg6Point3IfEC2Ev(ptr noundef nonnull align 4 dereferenceable(12) %0) unnamed_addr #4 comdat align 2 {
  %2 = alloca ptr, align 8
  store ptr %0, ptr %2, align 8
  ret void
}

; Function Attrs: mustprogress uwtable
define { <2 x float>, float } @_Z11StepForwardN3vcg6Point3IfEES1_fRP6CFaceOS1_ff(<2 x float> %0, float %1, <2 x float> %2, float %3, float noundef %4, ptr noundef nonnull align 8 dereferenceable(8) %5, <2 x float> %6, float %7, float noundef %8, float noundef %9) #13 {
  %11 = alloca %"class.vcg::Point3", align 4
  %12 = alloca %"class.vcg::Point3", align 4
  %13 = alloca { <2 x float>, float }, align 4
  %14 = alloca %"class.vcg::Point3", align 4
  %15 = alloca { <2 x float>, float }, align 4
  %16 = alloca %"class.vcg::Point3", align 4
  %17 = alloca { <2 x float>, float }, align 4
  %18 = alloca float, align 4
  %19 = alloca ptr, align 8
  %20 = alloca float, align 4
  %21 = alloca float, align 4
  %22 = alloca %"class.vcg::Point3", align 4
  %23 = alloca float, align 4
  %24 = alloca %"class.vcg::Point3", align 4
  %25 = alloca %"class.vcg::Point3", align 4
  %26 = alloca %"class.vcg::Point3", align 4
  %27 = alloca %"class.vcg::Point3", align 4
  %28 = alloca %"class.vcg::Point3", align 4
  %29 = alloca { <2 x float>, float }, align 8
  %30 = alloca { <2 x float>, float }, align 8
  %31 = alloca { <2 x float>, float }, align 8
  %32 = alloca %"class.vcg::Point3", align 4
  %33 = alloca %"class.vcg::Point3", align 4
  %34 = alloca %"class.vcg::Point3", align 4
  %35 = alloca %"class.vcg::Point3", align 4
  %36 = alloca { <2 x float>, float }, align 8
  %37 = alloca { <2 x float>, float }, align 8
  %38 = alloca { <2 x float>, float }, align 8
  %39 = alloca { <2 x float>, float }, align 8
  %40 = alloca { <2 x float>, float }, align 8
  %41 = alloca { <2 x float>, float }, align 8
  %42 = getelementptr inbounds { <2 x float>, float }, ptr %13, i32 0, i32 0
  store <2 x float> %0, ptr %42, align 4
  %43 = getelementptr inbounds { <2 x float>, float }, ptr %13, i32 0, i32 1
  store float %1, ptr %43, align 4
  call void @llvm.memcpy.p0.p0.i64(ptr align 4 %12, ptr align 4 %13, i64 12, i1 false)
  %44 = getelementptr inbounds { <2 x float>, float }, ptr %15, i32 0, i32 0
  store <2 x float> %2, ptr %44, align 4
  %45 = getelementptr inbounds { <2 x float>, float }, ptr %15, i32 0, i32 1
  store float %3, ptr %45, align 4
  call void @llvm.memcpy.p0.p0.i64(ptr align 4 %14, ptr align 4 %15, i64 12, i1 false)
  %46 = getelementptr inbounds { <2 x float>, float }, ptr %17, i32 0, i32 0
  store <2 x float> %6, ptr %46, align 4
  %47 = getelementptr inbounds { <2 x float>, float }, ptr %17, i32 0, i32 1
  store float %7, ptr %47, align 4
  call void @llvm.memcpy.p0.p0.i64(ptr align 4 %16, ptr align 4 %17, i64 12, i1 false)
  store float %4, ptr %18, align 4
  store ptr %5, ptr %19, align 8
  store float %8, ptr %20, align 4
  store float %9, ptr %21, align 4
  call void @_ZN3vcg6Point3IfEC2Ev(ptr noundef nonnull align 4 dereferenceable(12) %11)
  %48 = load ptr, ptr %19, align 8
  %49 = load ptr, ptr %48, align 8
  %50 = call noundef nonnull align 4 dereferenceable(12) ptr @_ZN3vcg4face9NormalAbsINS_6Point3IfEENS_6Arity3INS_8FaceBaseI11CUsedTypesOEENS0_7InfoOcfENS0_9VertexRefENS0_8BitFlagsEEEE1NEv(ptr noundef nonnull align 8 dereferenceable(48) %49)
  call void @llvm.memcpy.p0.p0.i64(ptr align 4 %22, ptr align 4 %50, i64 12, i1 false)
  %51 = call noundef nonnull align 4 dereferenceable(4) ptr @_ZN3vcg6Point3IfEixEi(ptr noundef nonnull align 4 dereferenceable(12) %22, i32 noundef 0)
  %52 = load float, ptr %51, align 4
  %53 = call noundef nonnull align 4 dereferenceable(4) ptr @_ZN3vcg6Point3IfEixEi(ptr noundef nonnull align 4 dereferenceable(12) %16, i32 noundef 0)
  %54 = load float, ptr %53, align 4
  %55 = call noundef nonnull align 4 dereferenceable(4) ptr @_ZN3vcg6Point3IfEixEi(ptr noundef nonnull align 4 dereferenceable(12) %22, i32 noundef 1)
  %56 = load float, ptr %55, align 4
  %57 = call noundef nonnull align 4 dereferenceable(4) ptr @_ZN3vcg6Point3IfEixEi(ptr noundef nonnull align 4 dereferenceable(12) %16, i32 noundef 1)
  %58 = load float, ptr %57, align 4
  %59 = fmul float %56, %58
  %60 = call float @llvm.fmuladd.f32(float %52, float %54, float %59)
  %61 = call noundef nonnull align 4 dereferenceable(4) ptr @_ZN3vcg6Point3IfEixEi(ptr noundef nonnull align 4 dereferenceable(12) %22, i32 noundef 2)
  %62 = load float, ptr %61, align 4
  %63 = call noundef nonnull align 4 dereferenceable(4) ptr @_ZN3vcg6Point3IfEixEi(ptr noundef nonnull align 4 dereferenceable(12) %16, i32 noundef 2)
  %64 = load float, ptr %63, align 4
  %65 = call float @llvm.fmuladd.f32(float %62, float %64, float %60)
  store float %65, ptr %23, align 4
  call void @_ZN3vcg6Point3IfEC2Ev(ptr noundef nonnull align 4 dereferenceable(12) %24)
  %66 = call noundef nonnull align 4 dereferenceable(4) ptr @_ZN3vcg6Point3IfEixEi(ptr noundef nonnull align 4 dereferenceable(12) %16, i32 noundef 0)
  %67 = load float, ptr %66, align 4
  %68 = load float, ptr %23, align 4
  %69 = call noundef nonnull align 4 dereferenceable(4) ptr @_ZN3vcg6Point3IfEixEi(ptr noundef nonnull align 4 dereferenceable(12) %22, i32 noundef 0)
  %70 = load float, ptr %69, align 4
  %71 = fneg float %68
  %72 = call float @llvm.fmuladd.f32(float %71, float %70, float %67)
  %73 = call noundef nonnull align 4 dereferenceable(4) ptr @_ZN3vcg6Point3IfEixEi(ptr noundef nonnull align 4 dereferenceable(12) %24, i32 noundef 0)
  store float %72, ptr %73, align 4
  %74 = call noundef nonnull align 4 dereferenceable(4) ptr @_ZN3vcg6Point3IfEixEi(ptr noundef nonnull align 4 dereferenceable(12) %16, i32 noundef 1)
  %75 = load float, ptr %74, align 4
  %76 = load float, ptr %23, align 4
  %77 = call noundef nonnull align 4 dereferenceable(4) ptr @_ZN3vcg6Point3IfEixEi(ptr noundef nonnull align 4 dereferenceable(12) %22, i32 noundef 1)
  %78 = load float, ptr %77, align 4
  %79 = fneg float %76
  %80 = call float @llvm.fmuladd.f32(float %79, float %78, float %75)
  %81 = call noundef nonnull align 4 dereferenceable(4) ptr @_ZN3vcg6Point3IfEixEi(ptr noundef nonnull align 4 dereferenceable(12) %24, i32 noundef 1)
  store float %80, ptr %81, align 4
  %82 = call noundef nonnull align 4 dereferenceable(4) ptr @_ZN3vcg6Point3IfEixEi(ptr noundef nonnull align 4 dereferenceable(12) %16, i32 noundef 2)
  %83 = load float, ptr %82, align 4
  %84 = load float, ptr %23, align 4
  %85 = call noundef nonnull align 4 dereferenceable(4) ptr @_ZN3vcg6Point3IfEixEi(ptr noundef nonnull align 4 dereferenceable(12) %22, i32 noundef 2)
  %86 = load float, ptr %85, align 4
  %87 = fneg float %84
  %88 = call float @llvm.fmuladd.f32(float %87, float %86, float %83)
  %89 = call noundef nonnull align 4 dereferenceable(4) ptr @_ZN3vcg6Point3IfEixEi(ptr noundef nonnull align 4 dereferenceable(12) %24, i32 noundef 2)
  store float %88, ptr %89, align 4
  %90 = load float, ptr %21, align 4
  %91 = call { <2 x float>, float } @_ZNK3vcg6Point3IfEmlEf(ptr noundef nonnull align 4 dereferenceable(12) %14, float noundef %90)
  %92 = getelementptr inbounds %"class.vcg::Point3", ptr %28, i32 0, i32 0
  store { <2 x float>, float } %91, ptr %29, align 8
  call void @llvm.memcpy.p0.p0.i64(ptr align 4 %92, ptr align 8 %29, i64 12, i1 false)
  %93 = load float, ptr %20, align 4
  %94 = call { <2 x float>, float } @_ZNK3vcg6Point3IfEmlEf(ptr noundef nonnull align 4 dereferenceable(12) %28, float noundef %93)
  %95 = getelementptr inbounds %"class.vcg::Point3", ptr %27, i32 0, i32 0
  store { <2 x float>, float } %94, ptr %30, align 8
  call void @llvm.memcpy.p0.p0.i64(ptr align 4 %95, ptr align 8 %30, i64 12, i1 false)
  %96 = call { <2 x float>, float } @_ZNK3vcg6Point3IfEplERKS1_(ptr noundef nonnull align 4 dereferenceable(12) %12, ptr noundef nonnull align 4 dereferenceable(12) %27)
  %97 = getelementptr inbounds %"class.vcg::Point3", ptr %26, i32 0, i32 0
  store { <2 x float>, float } %96, ptr %31, align 8
  call void @llvm.memcpy.p0.p0.i64(ptr align 4 %97, ptr align 8 %31, i64 12, i1 false)
  %98 = load float, ptr %18, align 4
  %99 = call { <2 x float>, float } @_ZNK3vcg6Point3IfEdvEf(ptr noundef nonnull align 4 dereferenceable(12) %24, float noundef %98)
  %100 = getelementptr inbounds %"class.vcg::Point3", ptr %35, i32 0, i32 0
  store { <2 x float>, float } %99, ptr %36, align 8
  call void @llvm.memcpy.p0.p0.i64(ptr align 4 %100, ptr align 8 %36, i64 12, i1 false)
  %101 = load float, ptr %21, align 4
  %102 = call noundef double @_ZSt3powIfiEN9__gnu_cxx11__promote_2IT_T0_NS0_9__promoteIS2_Xsr3std12__is_integerIS2_EE7__valueEE6__typeENS4_IS3_Xsr3std12__is_integerIS3_EE7__valueEE6__typeEE6__typeES2_S3_(float noundef %101, i32 noundef 2)
  %103 = fptrunc double %102 to float
  %104 = call { <2 x float>, float } @_ZNK3vcg6Point3IfEmlEf(ptr noundef nonnull align 4 dereferenceable(12) %35, float noundef %103)
  %105 = getelementptr inbounds %"class.vcg::Point3", ptr %34, i32 0, i32 0
  store { <2 x float>, float } %104, ptr %37, align 8
  call void @llvm.memcpy.p0.p0.i64(ptr align 4 %105, ptr align 8 %37, i64 12, i1 false)
  %106 = call { <2 x float>, float } @_ZNK3vcg6Point3IfEmlEf(ptr noundef nonnull align 4 dereferenceable(12) %34, float noundef 5.000000e-01)
  %107 = getelementptr inbounds %"class.vcg::Point3", ptr %33, i32 0, i32 0
  store { <2 x float>, float } %106, ptr %38, align 8
  call void @llvm.memcpy.p0.p0.i64(ptr align 4 %107, ptr align 8 %38, i64 12, i1 false)
  %108 = load float, ptr %20, align 4
  %109 = call { <2 x float>, float } @_ZNK3vcg6Point3IfEmlEf(ptr noundef nonnull align 4 dereferenceable(12) %33, float noundef %108)
  %110 = getelementptr inbounds %"class.vcg::Point3", ptr %32, i32 0, i32 0
  store { <2 x float>, float } %109, ptr %39, align 8
  call void @llvm.memcpy.p0.p0.i64(ptr align 4 %110, ptr align 8 %39, i64 12, i1 false)
  %111 = call { <2 x float>, float } @_ZNK3vcg6Point3IfEplERKS1_(ptr noundef nonnull align 4 dereferenceable(12) %26, ptr noundef nonnull align 4 dereferenceable(12) %32)
  %112 = getelementptr inbounds %"class.vcg::Point3", ptr %25, i32 0, i32 0
  store { <2 x float>, float } %111, ptr %40, align 8
  call void @llvm.memcpy.p0.p0.i64(ptr align 4 %112, ptr align 8 %40, i64 12, i1 false)
  call void @llvm.memcpy.p0.p0.i64(ptr align 4 %11, ptr align 4 %25, i64 12, i1 false)
  %113 = getelementptr inbounds %"class.vcg::Point3", ptr %11, i32 0, i32 0
  call void @llvm.memcpy.p0.p0.i64(ptr align 8 %41, ptr align 4 %113, i64 12, i1 false)
  %114 = load { <2 x float>, float }, ptr %41, align 8
  ret { <2 x float>, float } %114
}