; Function Attrs: mustprogress nofree norecurse nosync nounwind willreturn memory(read, inaccessiblemem: none) uwtable
define { <2 x float>, float } @_Z11StepForwardN3vcg6Point3IfEES1_fRP6CFaceOS1_ff(<2 x float> %0, float %1, <2 x float> %2, float %3, float noundef %4, ptr nocapture noundef nonnull readonly align 8 dereferenceable(8) %5, <2 x float> %6, float %7, float noundef %8, float noundef %9) local_unnamed_addr #16 {
  %11 = extractelement <2 x float> %6, i64 0
  %12 = load ptr, ptr %5, align 8
  %13 = getelementptr inbounds i8, ptr %12, i64 36
  %.sroa.5.0..sroa_idx = getelementptr inbounds i8, ptr %12, i64 44
  %.sroa.5.0.copyload = load float, ptr %.sroa.5.0..sroa_idx, align 4
  %14 = fmul float %3, %9
  %15 = fmul float %14, %8
  %16 = fadd float %15, %1
  %17 = fmul float %9, %9
  %18 = load <2 x float>, ptr %13, align 4
  %19 = fmul <2 x float> %18, %6
  %20 = extractelement <2 x float> %19, i64 1
  %21 = extractelement <2 x float> %18, i64 0
  %22 = tail call float @llvm.fmuladd.f32(float %21, float %11, float %20)
  %23 = tail call float @llvm.fmuladd.f32(float %.sroa.5.0.copyload, float %7, float %22)
  %24 = fneg float %23
  %25 = insertelement <2 x float> poison, float %24, i64 0
  %26 = shufflevector <2 x float> %25, <2 x float> poison, <2 x i32> zeroinitializer
  %27 = tail call <2 x float> @llvm.fmuladd.v2f32(<2 x float> %26, <2 x float> %18, <2 x float> %6)
  %28 = tail call float @llvm.fmuladd.f32(float %24, float %.sroa.5.0.copyload, float %7)
  %29 = insertelement <2 x float> poison, float %9, i64 0
  %30 = shufflevector <2 x float> %29, <2 x float> poison, <2 x i32> zeroinitializer
  %31 = fmul <2 x float> %30, %2
  %32 = insertelement <2 x float> poison, float %8, i64 0
  %33 = shufflevector <2 x float> %32, <2 x float> poison, <2 x i32> zeroinitializer
  %34 = fmul <2 x float> %31, %33
  %35 = fadd <2 x float> %34, %0
  %36 = insertelement <2 x float> poison, float %4, i64 0
  %37 = shufflevector <2 x float> %36, <2 x float> poison, <2 x i32> zeroinitializer
  %38 = fdiv <2 x float> %27, %37
  %39 = fdiv float %28, %4
  %40 = insertelement <2 x float> poison, float %17, i64 0
  %41 = shufflevector <2 x float> %40, <2 x float> poison, <2 x i32> zeroinitializer
  %42 = fmul <2 x float> %41, %38
  %43 = fmul float %17, %39
  %44 = fmul <2 x float> %42, <float 5.000000e-01, float 5.000000e-01>
  %45 = fmul float %43, 5.000000e-01
  %46 = fmul <2 x float> %44, %33
  %47 = fmul float %45, %8
  %48 = fadd <2 x float> %35, %46
  %49 = fadd float %16, %47
  %.fca.0.insert.i73 = insertvalue { <2 x float>, float } poison, <2 x float> %48, 0
  %.fca.1.insert.i74 = insertvalue { <2 x float>, float } %.fca.0.insert.i73, float %49, 1
  ret { <2 x float>, float } %.fca.1.insert.i74
}